; ModuleID = '21/895.c'
source_filename = "21/895.c"
target datalayout = "e-m:e-p270:32:32-p271:32:32-p272:64:64-i64:64-f80:128-n8:16:32:64-S128"
target triple = "x86_64-pc-linux-gnu"

@.str = private unnamed_addr constant [3 x i8] c"%d\00", align 1
@.str.1 = private unnamed_addr constant [4 x i8] c",%d\00", align 1

; Function Attrs: noinline nounwind uwtable
define dso_local void @main() #0 {
  %1 = alloca i32, align 4
  %2 = alloca i32, align 4
  %3 = alloca [300 x i32], align 16
  %4 = alloca [300 x i32*], align 16
  %5 = alloca i32, align 4
  %6 = alloca i32, align 4
  %7 = alloca i32, align 4
  %8 = alloca i32*, align 8
  %9 = alloca double, align 8
  %10 = alloca double, align 8
  store i32 0, i32* %5, align 4
  store double 0.000000e+00, double* %9, align 8
  store double 0.000000e+00, double* %10, align 8
  %11 = call i32 (i8*, ...) @__isoc99_scanf(i8* getelementptr inbounds ([3 x i8], [3 x i8]* @.str, i64 0, i64 0), i32* %2)
  store i32 0, i32* %1, align 4
  br label %12

12:                                               ; preds = %28, %0
  %13 = load i32, i32* %1, align 4
  %14 = load i32, i32* %2, align 4
  %15 = icmp slt i32 %13, %14
  br i1 %15, label %16, label %31

16:                                               ; preds = %12
  %17 = load i32, i32* %1, align 4
  %18 = sext i32 %17 to i64
  %19 = getelementptr inbounds [300 x i32], [300 x i32]* %3, i64 0, i64 %18
  %20 = call i32 (i8*, ...) @__isoc99_scanf(i8* getelementptr inbounds ([3 x i8], [3 x i8]* @.str, i64 0, i64 0), i32* %19)
  %21 = load double, double* %9, align 8
  %22 = load i32, i32* %1, align 4
  %23 = sext i32 %22 to i64
  %24 = getelementptr inbounds [300 x i32], [300 x i32]* %3, i64 0, i64 %23
  %25 = load i32, i32* %24, align 4
  %26 = sitofp i32 %25 to double
  %27 = fadd double %21, %26
  store double %27, double* %9, align 8
  br label %28

28:                                               ; preds = %16
  %29 = load i32, i32* %1, align 4
  %30 = add nsw i32 %29, 1
  store i32 %30, i32* %1, align 4
  br label %12

31:                                               ; preds = %12
  %32 = load i32, i32* %2, align 4
  %33 = sitofp i32 %32 to double
  %34 = load double, double* %9, align 8
  %35 = fdiv double %34, %33
  store double %35, double* %9, align 8
  store i32 0, i32* %1, align 4
  br label %36

36:                                               ; preds = %64, %31
  %37 = load i32, i32* %1, align 4
  %38 = load i32, i32* %2, align 4
  %39 = icmp slt i32 %37, %38
  br i1 %39, label %40, label %67

40:                                               ; preds = %36
  %41 = load double, double* %9, align 8
  %42 = load i32, i32* %1, align 4
  %43 = sext i32 %42 to i64
  %44 = getelementptr inbounds [300 x i32], [300 x i32]* %3, i64 0, i64 %43
  %45 = load i32, i32* %44, align 4
  %46 = sitofp i32 %45 to double
  %47 = fsub double %41, %46
  %48 = call double @llvm.fabs.f64(double %47)
  %49 = load double, double* %10, align 8
  %50 = fcmp ogt double %48, %49
  br i1 %50, label %51, label %60

51:                                               ; preds = %40
  %52 = load double, double* %9, align 8
  %53 = load i32, i32* %1, align 4
  %54 = sext i32 %53 to i64
  %55 = getelementptr inbounds [300 x i32], [300 x i32]* %3, i64 0, i64 %54
  %56 = load i32, i32* %55, align 4
  %57 = sitofp i32 %56 to double
  %58 = fsub double %52, %57
  %59 = call double @llvm.fabs.f64(double %58)
  br label %62

60:                                               ; preds = %40
  %61 = load double, double* %10, align 8
  br label %62

62:                                               ; preds = %60, %51
  %63 = phi double [ %59, %51 ], [ %61, %60 ]
  store double %63, double* %10, align 8
  br label %64

64:                                               ; preds = %62
  %65 = load i32, i32* %1, align 4
  %66 = add nsw i32 %65, 1
  store i32 %66, i32* %1, align 4
  br label %36

67:                                               ; preds = %36
  store i32 0, i32* %1, align 4
  br label %68

68:                                               ; preds = %95, %67
  %69 = load i32, i32* %1, align 4
  %70 = load i32, i32* %2, align 4
  %71 = icmp slt i32 %69, %70
  br i1 %71, label %72, label %98

72:                                               ; preds = %68
  %73 = load double, double* %9, align 8
  %74 = load i32, i32* %1, align 4
  %75 = sext i32 %74 to i64
  %76 = getelementptr inbounds [300 x i32], [300 x i32]* %3, i64 0, i64 %75
  %77 = load i32, i32* %76, align 4
  %78 = sitofp i32 %77 to double
  %79 = fsub double %73, %78
  %80 = call double @llvm.fabs.f64(double %79)
  %81 = load double, double* %10, align 8
  %82 = fsub double %80, %81
  %83 = call double @llvm.fabs.f64(double %82)
  %84 = fcmp olt double %83, 0x3EB0C6F7A0B5ED8D
  br i1 %84, label %85, label %94

85:                                               ; preds = %72
  %86 = load i32, i32* %1, align 4
  %87 = sext i32 %86 to i64
  %88 = getelementptr inbounds [300 x i32], [300 x i32]* %3, i64 0, i64 %87
  %89 = load i32, i32* %5, align 4
  %90 = sext i32 %89 to i64
  %91 = getelementptr inbounds [300 x i32*], [300 x i32*]* %4, i64 0, i64 %90
  store i32* %88, i32** %91, align 8
  %92 = load i32, i32* %5, align 4
  %93 = add nsw i32 %92, 1
  store i32 %93, i32* %5, align 4
  br label %94

94:                                               ; preds = %85, %72
  br label %95

95:                                               ; preds = %94
  %96 = load i32, i32* %1, align 4
  %97 = add nsw i32 %96, 1
  store i32 %97, i32* %1, align 4
  br label %68

98:                                               ; preds = %68
  store i32 0, i32* %6, align 4
  br label %99

99:                                               ; preds = %148, %98
  %100 = load i32, i32* %6, align 4
  %101 = load i32, i32* %5, align 4
  %102 = sub nsw i32 %101, 1
  %103 = icmp slt i32 %100, %102
  br i1 %103, label %104, label %151

104:                                              ; preds = %99
  store i32 0, i32* %7, align 4
  br label %105

105:                                              ; preds = %144, %104
  %106 = load i32, i32* %7, align 4
  %107 = load i32, i32* %5, align 4
  %108 = sub nsw i32 %107, 1
  %109 = load i32, i32* %6, align 4
  %110 = sub nsw i32 %108, %109
  %111 = icmp slt i32 %106, %110
  br i1 %111, label %112, label %147

112:                                              ; preds = %105
  %113 = load i32, i32* %7, align 4
  %114 = sext i32 %113 to i64
  %115 = getelementptr inbounds [300 x i32*], [300 x i32*]* %4, i64 0, i64 %114
  %116 = load i32*, i32** %115, align 8
  %117 = load i32, i32* %116, align 4
  %118 = load i32, i32* %7, align 4
  %119 = add nsw i32 %118, 1
  %120 = sext i32 %119 to i64
  %121 = getelementptr inbounds [300 x i32*], [300 x i32*]* %4, i64 0, i64 %120
  %122 = load i32*, i32** %121, align 8
  %123 = load i32, i32* %122, align 4
  %124 = icmp sgt i32 %117, %123
  br i1 %124, label %125, label %143

125:                                              ; preds = %112
  %126 = load i32*, i32** %8, align 8
  %127 = load i32, i32* %7, align 4
  %128 = sext i32 %127 to i64
  %129 = getelementptr inbounds [300 x i32*], [300 x i32*]* %4, i64 0, i64 %128
  store i32* %126, i32** %129, align 8
  %130 = load i32, i32* %7, align 4
  %131 = add nsw i32 %130, 1
  %132 = sext i32 %131 to i64
  %133 = getelementptr inbounds [300 x i32*], [300 x i32*]* %4, i64 0, i64 %132
  %134 = load i32*, i32** %133, align 8
  %135 = load i32, i32* %7, align 4
  %136 = sext i32 %135 to i64
  %137 = getelementptr inbounds [300 x i32*], [300 x i32*]* %4, i64 0, i64 %136
  store i32* %134, i32** %137, align 8
  %138 = load i32*, i32** %8, align 8
  %139 = load i32, i32* %7, align 4
  %140 = add nsw i32 %139, 1
  %141 = sext i32 %140 to i64
  %142 = getelementptr inbounds [300 x i32*], [300 x i32*]* %4, i64 0, i64 %141
  store i32* %138, i32** %142, align 8
  br label %143

143:                                              ; preds = %125, %112
  br label %144

144:                                              ; preds = %143
  %145 = load i32, i32* %7, align 4
  %146 = add nsw i32 %145, 1
  store i32 %146, i32* %7, align 4
  br label %105

147:                                              ; preds = %105
  br label %148

148:                                              ; preds = %147
  %149 = load i32, i32* %6, align 4
  %150 = add nsw i32 %149, 1
  store i32 %150, i32* %6, align 4
  br label %99

151:                                              ; preds = %99
  %152 = getelementptr inbounds [300 x i32*], [300 x i32*]* %4, i64 0, i64 0
  %153 = load i32*, i32** %152, align 16
  %154 = load i32, i32* %153, align 4
  %155 = call i32 (i8*, ...) @printf(i8* getelementptr inbounds ([3 x i8], [3 x i8]* @.str, i64 0, i64 0), i32 %154)
  store i32 1, i32* %6, align 4
  br label %156

156:                                              ; preds = %167, %151
  %157 = load i32, i32* %6, align 4
  %158 = load i32, i32* %5, align 4
  %159 = icmp slt i32 %157, %158
  br i1 %159, label %160, label %170

160:                                              ; preds = %156
  %161 = load i32, i32* %6, align 4
  %162 = sext i32 %161 to i64
  %163 = getelementptr inbounds [300 x i32*], [300 x i32*]* %4, i64 0, i64 %162
  %164 = load i32*, i32** %163, align 8
  %165 = load i32, i32* %164, align 4
  %166 = call i32 (i8*, ...) @printf(i8* getelementptr inbounds ([4 x i8], [4 x i8]* @.str.1, i64 0, i64 0), i32 %165)
  br label %167

167:                                              ; preds = %160
  %168 = load i32, i32* %6, align 4
  %169 = add nsw i32 %168, 1
  store i32 %169, i32* %6, align 4
  br label %156

170:                                              ; preds = %156
  ret void
}

declare dso_local i32 @__isoc99_scanf(i8*, ...) #1

; Function Attrs: nounwind readnone speculatable willreturn
declare double @llvm.fabs.f64(double) #2

declare dso_local i32 @printf(i8*, ...) #1


!llvm.module.flags = !{!0}
!llvm.ident = !{!1}

!0 = !{i32 1, !"wchar_size", i32 4}
!1 = !{!"clang version 10.0.0-4ubuntu1 "}
